(dp0
S'q'
p1
L12451563181419663606563672046810591410057709438845925912823638417355849914923435808456848764716412267996412332538560225658342606478972273504278155298286223L
sS'p'
p2
L9572432579243079478628252436227404769316040050633519297596687925301614418806682343787516739296402042801113145890505034598741137111638368206428111024708233L
sS'phi'
p3
L119191749060325194864936968570746771482814885132697175257045130836169276343811209477576944539207041858540939931270259849274391886380304090422942712028286050533160158359754312466184866673649753238659761175726947004781728338788167834677099326075949458371203169960300910476558484496281093066719998428727175579504L
sS'priv_key'
p4
(L119191749060325194864936968570746771482814885132697175257045130836169276343811209477576944539207041858540939931270259849274391886380304090422942712028286072557155919022497397658109349711645932612409250655172157425108070996252501564795251570441453471185513967485779339541818741580024683677361709134993498573959L
L68292660288113246548524778774887138698900578898449861061696513341478439853270584907376858929581277374477080942736020235022169362886671698648494726981142802062234376109058004096301520757902575986519920353948215901648129757326170485669828493092697820239223928157229170237174856954232472121329611633127558180847L
tp5
sS'e'
p6
L76619833033316013454000125446318966922161469749520734897376295981537680060644748652311051496491650286735327831067854071755638299152877763624001439084146864853958277813113446713885213781020239982326028698694007165645173979216636382740681580753508315819149833225141867674712472908735887025484934676339777833679L
sS'd'
p7
L68292660288113246548524778774887138698900578898449861061696513341478439853270584907376858929581277374477080942736020235022169362886671698648494726981142802062234376109058004096301520757902575986519920353948215901648129757326170485669828493092697820239223928157229170237174856954232472121329611633127558180847L
sS'pub_key'
p8
(L119191749060325194864936968570746771482814885132697175257045130836169276343811209477576944539207041858540939931270259849274391886380304090422942712028286072557155919022497397658109349711645932612409250655172157425108070996252501564795251570441453471185513967485779339541818741580024683677361709134993498573959L
L76619833033316013454000125446318966922161469749520734897376295981537680060644748652311051496491650286735327831067854071755638299152877763624001439084146864853958277813113446713885213781020239982326028698694007165645173979216636382740681580753508315819149833225141867674712472908735887025484934676339777833679L
tp9
sS'modulus'
p10
L119191749060325194864936968570746771482814885132697175257045130836169276343811209477576944539207041858540939931270259849274391886380304090422942712028286072557155919022497397658109349711645932612409250655172157425108070996252501564795251570441453471185513967485779339541818741580024683677361709134993498573959L
s.